; Function Attrs: mustprogress uwtable
define hidden void @_ZN4lean12type_checkerC2ERKNS_11environmentERKNS_9local_ctxEPNS_11diagnosticsENS_17definition_safetyE(ptr noundef nonnull writeonly align 8 captures(none) dereferenceable(48) initializes((0, 1)) %0, ptr noundef nonnull readonly align 8 captures(none) dereferenceable(8) %1, ptr noundef nonnull readonly align 8 captures(none) dereferenceable(8) %2, ptr noundef %3, i32 noundef %4) unnamed_addr #0 align 2 personality ptr @__gxx_personality_v0 {
  store i8 1, ptr %0, align 8, !tbaa !443
  %6 = tail call noalias noundef nonnull dereferenceable(392) ptr @_Znwm(i64 noundef 392) #23
  invoke void @_ZN4lean12type_checker5stateC2ERKNS_11environmentE(ptr noundef nonnull align 8 dereferenceable(392) %6, ptr noundef nonnull align 8 dereferenceable(8) %1)
          to label %7 unwind label %22

7:                                                ; preds = %5
  %8 = getelementptr inbounds nuw i8, ptr %0, i64 8
  store ptr %6, ptr %8, align 8, !tbaa !31
  %9 = getelementptr inbounds nuw i8, ptr %0, i64 16
  store ptr %3, ptr %9, align 8, !tbaa !211
  %10 = getelementptr inbounds nuw i8, ptr %0, i64 24
  %11 = load ptr, ptr %2, align 8, !tbaa !3
  store ptr %11, ptr %10, align 8, !tbaa !3
  %12 = ptrtoint ptr %11 to i64
  %13 = and i64 %12, 1
  %.not.i.i.i = icmp eq i64 %13, 0
  br i1 %.not.i.i.i, label %14, label %_ZN4lean9local_ctxC2ERKS0_.exit

14:                                               ; preds = %7
  %.val.i.i.i.i = load i32, ptr %11, align 4, !tbaa !8
  %15 = icmp sgt i32 %.val.i.i.i.i, 0
  br i1 %15, label %16, label %18, !prof !11

16:                                               ; preds = %14
  %17 = add nuw nsw i32 %.val.i.i.i.i, 1
  store i32 %17, ptr %11, align 4, !tbaa !8
  br label %_ZN4lean9local_ctxC2ERKS0_.exit

18:                                               ; preds = %14
  %.not.i.i.i.i = icmp eq i32 %.val.i.i.i.i, 0
  br i1 %.not.i.i.i.i, label %_ZN4lean9local_ctxC2ERKS0_.exit, label %19

19:                                               ; preds = %18
  tail call void @lean_inc_ref_cold(ptr noundef nonnull %11)
  br label %_ZN4lean9local_ctxC2ERKS0_.exit

_ZN4lean9local_ctxC2ERKS0_.exit:                  ; preds = %7, %16, %18, %19
  %20 = getelementptr inbounds nuw i8, ptr %0, i64 32
  store i32 %4, ptr %20, align 8, !tbaa !444
  %21 = getelementptr inbounds nuw i8, ptr %0, i64 40
  store ptr null, ptr %21, align 8, !tbaa !77
  ret void

22:                                               ; preds = %5
  %23 = landingpad { ptr, i32 }
          cleanup
  tail call void @_ZdlPvm(ptr noundef nonnull %6, i64 noundef 392) #22
  resume { ptr, i32 } %23
}